; Function Attrs: mustprogress uwtable
define void @_ZN6icu_756number12SimpleNumber24setMinimumFractionDigitsEjR10UErrorCode(ptr nocapture noundef nonnull readonly align 8 dereferenceable(12) %this, i32 noundef %position, ptr nocapture noundef nonnull align 4 dereferenceable(4) %status) local_unnamed_addr #1 align 2 {
entry:
  %0 = load i32, ptr %status, align 4
  %cmp.i = icmp slt i32 %0, 1
  br i1 %cmp.i, label %if.end, label %return

if.end:                                           ; preds = %entry
  %1 = load ptr, ptr %this, align 8
  %cmp = icmp eq ptr %1, null
  br i1 %cmp, label %if.then2, label %if.end3

if.then2:                                         ; preds = %if.end
  store i32 27, ptr %status, align 4
  br label %return

if.end3:                                          ; preds = %if.end
  %quantity = getelementptr inbounds i8, ptr %1, i64 304
  tail call void @_ZN6icu_756number4impl15DecimalQuantity14setMinFractionEi(ptr noundef nonnull align 8 dereferenceable(66) %quantity, i32 noundef %position)
  br label %return

return:                                           ; preds = %entry, %if.end3, %if.then2
  ret void
}